; Function Attrs: mustprogress sspstrong uwtable
define void @_ZN4FLAC8Metadata9PrototypeC2ERK20FLAC__StreamMetadata(ptr nocapture noundef nonnull writeonly align 8 dereferenceable(17) %this, ptr noundef nonnull align 8 dereferenceable(176) %object) unnamed_addr #0 align 2 {
entry:
  store ptr getelementptr inbounds ({ [5 x ptr] }, ptr @_ZTVN4FLAC8Metadata9PrototypeE, i64 0, i32 0, i64 2), ptr %this, align 8
  %object_ = getelementptr inbounds i8, ptr %this, i64 8
  %call = tail call ptr @FLAC__metadata_object_clone(ptr noundef nonnull %object)
  store ptr %call, ptr %object_, align 8
  %is_reference_ = getelementptr inbounds i8, ptr %this, i64 16
  store i8 0, ptr %is_reference_, align 8
  ret void
}